; ModuleID = 'testcase3.cpp'
source_filename = "testcase3.cpp"
target datalayout = "e-m:e-p270:32:32-p271:32:32-p272:64:64-i64:64-f80:128-n8:16:32:64-S128"
target triple = "x86_64-pc-linux-gnu"

@p = dso_local global i32** null, align 8, !dbg !0
@q = dso_local global i32** null, align 8, !dbg !6
@r = dso_local global i32** null, align 8, !dbg !11
@x = dso_local global i32* null, align 8, !dbg !13
@y = dso_local global i32* null, align 8, !dbg !15
@z = dso_local global i32* null, align 8, !dbg !17
@a = dso_local global i32 0, align 4, !dbg !19
@b = dso_local global i32 0, align 4, !dbg !21
@c = dso_local global i32 0, align 4, !dbg !23

; Function Attrs: noinline norecurse uwtable
define dso_local i32 @main() #0 !dbg !29 {
  %1 = alloca i32, align 4
  store i32 0, i32* %1, align 4
  store i32** @x, i32*** @p, align 8, !dbg !32
  %2 = load i32**, i32*** @p, align 8, !dbg !33
  %3 = load i32*, i32** @x, align 8, !dbg !34
  call void @_Z12MustPointsToIPPiS0_EvT_T0_(i32** %2, i32* %3), !dbg !35
  %4 = load i32**, i32*** @p, align 8, !dbg !36
  %5 = load i32*, i32** @y, align 8, !dbg !37
  call void @_Z15DoesNotPointsToIPPiS0_EvT_T0_(i32** %4, i32* %5), !dbg !38
  %6 = load i32**, i32*** @p, align 8, !dbg !39
  %7 = load i32*, i32** @z, align 8, !dbg !40
  call void @_Z15DoesNotPointsToIPPiS0_EvT_T0_(i32** %6, i32* %7), !dbg !41
  br label %8, !dbg !42

8:                                                ; preds = %47, %0
  %9 = load i32, i32* @a, align 4, !dbg !43
  %10 = icmp sgt i32 %9, 0, !dbg !44
  br i1 %10, label %11, label %63, !dbg !42

11:                                               ; preds = %8
  %12 = load i32**, i32*** @p, align 8, !dbg !45
  %13 = load i32*, i32** @x, align 8, !dbg !47
  call void @_Z11MayPointsToIPPiS0_EvT_T0_(i32** %12, i32* %13), !dbg !48
  %14 = load i32**, i32*** @p, align 8, !dbg !49
  %15 = load i32*, i32** @y, align 8, !dbg !50
  call void @_Z11MayPointsToIPPiS0_EvT_T0_(i32** %14, i32* %15), !dbg !51
  %16 = load i32**, i32*** @p, align 8, !dbg !52
  %17 = load i32*, i32** @z, align 8, !dbg !53
  call void @_Z15DoesNotPointsToIPPiS0_EvT_T0_(i32** %16, i32* %17), !dbg !54
  %18 = load i32**, i32*** @q, align 8, !dbg !55
  %19 = load i32*, i32** @x, align 8, !dbg !56
  call void @_Z11MayPointsToIPPiS0_EvT_T0_(i32** %18, i32* %19), !dbg !57
  %20 = load i32**, i32*** @p, align 8, !dbg !58
  store i32* @b, i32** %20, align 8, !dbg !59
  %21 = load i32*, i32** @x, align 8, !dbg !60
  %22 = load i32, i32* @b, align 4, !dbg !61
  call void @_Z11MayPointsToIPiiEvT_T0_(i32* %21, i32 %22), !dbg !62
  %23 = load i32*, i32** @y, align 8, !dbg !63
  %24 = load i32, i32* @b, align 4, !dbg !64
  call void @_Z11MayPointsToIPiiEvT_T0_(i32* %23, i32 %24), !dbg !65
  br label %25, !dbg !66

25:                                               ; preds = %28, %11
  %26 = load i32, i32* @b, align 4, !dbg !67
  %27 = icmp sgt i32 %26, 0, !dbg !68
  br i1 %27, label %28, label %47, !dbg !66

28:                                               ; preds = %25
  %29 = load i32**, i32*** @q, align 8, !dbg !69
  %30 = load i32*, i32** @x, align 8, !dbg !71
  call void @_Z11MayPointsToIPPiS0_EvT_T0_(i32** %29, i32* %30), !dbg !72
  %31 = load i32**, i32*** @q, align 8, !dbg !73
  %32 = load i32*, i32** @y, align 8, !dbg !74
  call void @_Z11MayPointsToIPPiS0_EvT_T0_(i32** %31, i32* %32), !dbg !75
  %33 = load i32*, i32** @x, align 8, !dbg !76
  %34 = load i32, i32* @b, align 4, !dbg !77
  call void @_Z12MustPointsToIPiiEvT_T0_(i32* %33, i32 %34), !dbg !78
  %35 = load i32*, i32** @y, align 8, !dbg !79
  %36 = load i32, i32* @a, align 4, !dbg !80
  call void @_Z11MayPointsToIPiiEvT_T0_(i32* %35, i32 %36), !dbg !81
  %37 = load i32*, i32** @y, align 8, !dbg !82
  %38 = load i32, i32* @b, align 4, !dbg !83
  call void @_Z11MayPointsToIPiiEvT_T0_(i32* %37, i32 %38), !dbg !84
  store i32* @b, i32** @x, align 8, !dbg !85
  store i32* @a, i32** @y, align 8, !dbg !86
  store i32** @y, i32*** @q, align 8, !dbg !87
  %39 = load i32*, i32** @x, align 8, !dbg !88
  %40 = load i32, i32* @b, align 4, !dbg !89
  call void @_Z12MustPointsToIPiiEvT_T0_(i32* %39, i32 %40), !dbg !90
  %41 = load i32*, i32** @y, align 8, !dbg !91
  %42 = load i32, i32* @a, align 4, !dbg !92
  call void @_Z12MustPointsToIPiiEvT_T0_(i32* %41, i32 %42), !dbg !93
  %43 = load i32**, i32*** @q, align 8, !dbg !94
  %44 = load i32*, i32** @y, align 8, !dbg !95
  call void @_Z12MustPointsToIPPiS0_EvT_T0_(i32** %43, i32* %44), !dbg !96
  %45 = load i32, i32* @b, align 4, !dbg !97
  %46 = add nsw i32 %45, -1, !dbg !97
  store i32 %46, i32* @b, align 4, !dbg !97
  br label %25, !dbg !66, !llvm.loop !98

47:                                               ; preds = %25
  %48 = load i32*, i32** @x, align 8, !dbg !100
  %49 = load i32, i32* @b, align 4, !dbg !101
  call void @_Z11MayPointsToIPiiEvT_T0_(i32* %48, i32 %49), !dbg !102
  %50 = load i32*, i32** @y, align 8, !dbg !103
  %51 = load i32, i32* @a, align 4, !dbg !104
  call void @_Z11MayPointsToIPiiEvT_T0_(i32* %50, i32 %51), !dbg !105
  %52 = load i32*, i32** @y, align 8, !dbg !106
  %53 = load i32, i32* @b, align 4, !dbg !107
  call void @_Z11MayPointsToIPiiEvT_T0_(i32* %52, i32 %53), !dbg !108
  %54 = load i32**, i32*** @q, align 8, !dbg !109
  %55 = load i32*, i32** @x, align 8, !dbg !110
  call void @_Z11MayPointsToIPPiS0_EvT_T0_(i32** %54, i32* %55), !dbg !111
  %56 = load i32**, i32*** @q, align 8, !dbg !112
  %57 = load i32*, i32** @y, align 8, !dbg !113
  call void @_Z11MayPointsToIPPiS0_EvT_T0_(i32** %56, i32* %57), !dbg !114
  store i32** @y, i32*** @p, align 8, !dbg !115
  store i32** @x, i32*** @q, align 8, !dbg !116
  %58 = load i32**, i32*** @r, align 8, !dbg !117
  store i32** %58, i32*** @p, align 8, !dbg !118
  %59 = load i32**, i32*** @q, align 8, !dbg !119
  %60 = load i32*, i32** @x, align 8, !dbg !120
  call void @_Z12MustPointsToIPPiS0_EvT_T0_(i32** %59, i32* %60), !dbg !121
  %61 = load i32, i32* @a, align 4, !dbg !122
  %62 = add nsw i32 %61, -1, !dbg !122
  store i32 %62, i32* @a, align 4, !dbg !122
  br label %8, !dbg !42, !llvm.loop !123

63:                                               ; preds = %8
  %64 = load i32, i32* @a, align 4, !dbg !125
  %65 = icmp sgt i32 %64, -1, !dbg !127
  br i1 %65, label %66, label %74, !dbg !128

66:                                               ; preds = %63
  %67 = load i32**, i32*** @p, align 8, !dbg !129
  %68 = load i32*, i32** @x, align 8, !dbg !131
  call void @_Z11MayPointsToIPPiS0_EvT_T0_(i32** %67, i32* %68), !dbg !132
  %69 = load i32**, i32*** @q, align 8, !dbg !133
  %70 = load i32*, i32** @x, align 8, !dbg !134
  call void @_Z11MayPointsToIPPiS0_EvT_T0_(i32** %69, i32* %70), !dbg !135
  %71 = load i32**, i32*** @q, align 8, !dbg !136
  %72 = load i32*, i32** %71, align 8, !dbg !137
  %73 = load i32**, i32*** @p, align 8, !dbg !138
  store i32* %72, i32** %73, align 8, !dbg !139
  br label %82, !dbg !140

74:                                               ; preds = %63
  %75 = load i32**, i32*** @p, align 8, !dbg !141
  %76 = load i32*, i32** @x, align 8, !dbg !143
  call void @_Z11MayPointsToIPPiS0_EvT_T0_(i32** %75, i32* %76), !dbg !144
  %77 = load i32**, i32*** @q, align 8, !dbg !145
  %78 = load i32*, i32** @x, align 8, !dbg !146
  call void @_Z11MayPointsToIPPiS0_EvT_T0_(i32** %77, i32* %78), !dbg !147
  %79 = load i32**, i32*** @q, align 8, !dbg !148
  store i32* @a, i32** %79, align 8, !dbg !149
  %80 = load i32*, i32** @x, align 8, !dbg !150
  %81 = load i32, i32* @a, align 4, !dbg !151
  call void @_Z11MayPointsToIPiiEvT_T0_(i32* %80, i32 %81), !dbg !152
  br label %82

82:                                               ; preds = %74, %66
  %83 = load i32**, i32*** @p, align 8, !dbg !153
  %84 = load i32*, i32** @x, align 8, !dbg !154
  call void @_Z11MayPointsToIPPiS0_EvT_T0_(i32** %83, i32* %84), !dbg !155
  %85 = load i32**, i32*** @q, align 8, !dbg !156
  %86 = load i32*, i32** @x, align 8, !dbg !157
  call void @_Z11MayPointsToIPPiS0_EvT_T0_(i32** %85, i32* %86), !dbg !158
  %87 = load i32*, i32** @x, align 8, !dbg !159
  %88 = load i32, i32* @a, align 4, !dbg !160
  call void @_Z11MayPointsToIPiiEvT_T0_(i32* %87, i32 %88), !dbg !161
  store i32* @a, i32** @x, align 8, !dbg !162
  store i32* @b, i32** @y, align 8, !dbg !163
  %89 = load i32*, i32** @x, align 8, !dbg !164
  %90 = load i32, i32* @a, align 4, !dbg !165
  call void @_Z12MustPointsToIPiiEvT_T0_(i32* %89, i32 %90), !dbg !166
  %91 = load i32*, i32** @y, align 8, !dbg !167
  %92 = load i32, i32* @b, align 4, !dbg !168
  call void @_Z12MustPointsToIPiiEvT_T0_(i32* %91, i32 %92), !dbg !169
  ret i32 0, !dbg !170
}

declare dso_local void @_Z12MustPointsToIPPiS0_EvT_T0_(i32**, i32*) #1

declare dso_local void @_Z15DoesNotPointsToIPPiS0_EvT_T0_(i32**, i32*) #1

declare dso_local void @_Z11MayPointsToIPPiS0_EvT_T0_(i32**, i32*) #1

declare dso_local void @_Z11MayPointsToIPiiEvT_T0_(i32*, i32) #1

declare dso_local void @_Z12MustPointsToIPiiEvT_T0_(i32*, i32) #1

attributes #0 = { noinline norecurse uwtable "correctly-rounded-divide-sqrt-fp-math"="false" "disable-tail-calls"="false" "frame-pointer"="all" "less-precise-fpmad"="false" "min-legal-vector-width"="0" "no-infs-fp-math"="false" "no-jump-tables"="false" "no-nans-fp-math"="false" "no-signed-zeros-fp-math"="false" "no-trapping-math"="false" "stack-protector-buffer-size"="8" "target-cpu"="x86-64" "target-features"="+cx8,+fxsr,+mmx,+sse,+sse2,+x87" "unsafe-fp-math"="false" "use-soft-float"="false" }
attributes #1 = { "correctly-rounded-divide-sqrt-fp-math"="false" "disable-tail-calls"="false" "frame-pointer"="all" "less-precise-fpmad"="false" "no-infs-fp-math"="false" "no-nans-fp-math"="false" "no-signed-zeros-fp-math"="false" "no-trapping-math"="false" "stack-protector-buffer-size"="8" "target-cpu"="x86-64" "target-features"="+cx8,+fxsr,+mmx,+sse,+sse2,+x87" "unsafe-fp-math"="false" "use-soft-float"="false" }

!llvm.dbg.cu = !{!2}
!llvm.module.flags = !{!25, !26, !27}
!llvm.ident = !{!28}

!0 = !DIGlobalVariableExpression(var: !1, expr: !DIExpression())
!1 = distinct !DIGlobalVariable(name: "p", scope: !2, file: !3, line: 4, type: !8, isLocal: false, isDefinition: true)
!2 = distinct !DICompileUnit(language: DW_LANG_C_plus_plus_14, file: !3, producer: "clang version 10.0.0-4ubuntu1 ", isOptimized: false, runtimeVersion: 0, emissionKind: FullDebug, enums: !4, globals: !5, splitDebugInlining: false, nameTableKind: None)
!3 = !DIFile(filename: "testcase3.cpp", directory: "/home/mehul/Rnd_Project/testcases")
!4 = !{}
!5 = !{!0, !6, !11, !13, !15, !17, !19, !21, !23}
!6 = !DIGlobalVariableExpression(var: !7, expr: !DIExpression())
!7 = distinct !DIGlobalVariable(name: "q", scope: !2, file: !3, line: 4, type: !8, isLocal: false, isDefinition: true)
!8 = !DIDerivedType(tag: DW_TAG_pointer_type, baseType: !9, size: 64)
!9 = !DIDerivedType(tag: DW_TAG_pointer_type, baseType: !10, size: 64)
!10 = !DIBasicType(name: "int", size: 32, encoding: DW_ATE_signed)
!11 = !DIGlobalVariableExpression(var: !12, expr: !DIExpression())
!12 = distinct !DIGlobalVariable(name: "r", scope: !2, file: !3, line: 4, type: !8, isLocal: false, isDefinition: true)
!13 = !DIGlobalVariableExpression(var: !14, expr: !DIExpression())
!14 = distinct !DIGlobalVariable(name: "x", scope: !2, file: !3, line: 4, type: !9, isLocal: false, isDefinition: true)
!15 = !DIGlobalVariableExpression(var: !16, expr: !DIExpression())
!16 = distinct !DIGlobalVariable(name: "y", scope: !2, file: !3, line: 4, type: !9, isLocal: false, isDefinition: true)
!17 = !DIGlobalVariableExpression(var: !18, expr: !DIExpression())
!18 = distinct !DIGlobalVariable(name: "z", scope: !2, file: !3, line: 4, type: !9, isLocal: false, isDefinition: true)
!19 = !DIGlobalVariableExpression(var: !20, expr: !DIExpression())
!20 = distinct !DIGlobalVariable(name: "a", scope: !2, file: !3, line: 4, type: !10, isLocal: false, isDefinition: true)
!21 = !DIGlobalVariableExpression(var: !22, expr: !DIExpression())
!22 = distinct !DIGlobalVariable(name: "b", scope: !2, file: !3, line: 4, type: !10, isLocal: false, isDefinition: true)
!23 = !DIGlobalVariableExpression(var: !24, expr: !DIExpression())
!24 = distinct !DIGlobalVariable(name: "c", scope: !2, file: !3, line: 4, type: !10, isLocal: false, isDefinition: true)
!25 = !{i32 7, !"Dwarf Version", i32 4}
!26 = !{i32 2, !"Debug Info Version", i32 3}
!27 = !{i32 1, !"wchar_size", i32 4}
!28 = !{!"clang version 10.0.0-4ubuntu1 "}
!29 = distinct !DISubprogram(name: "main", scope: !3, file: !3, line: 5, type: !30, scopeLine: 5, flags: DIFlagPrototyped, spFlags: DISPFlagDefinition, unit: !2, retainedNodes: !4)
!30 = !DISubroutineType(types: !31)
!31 = !{!10}
!32 = !DILocation(line: 6, column: 7, scope: !29)
!33 = !DILocation(line: 7, column: 18, scope: !29)
!34 = !DILocation(line: 7, column: 20, scope: !29)
!35 = !DILocation(line: 7, column: 5, scope: !29)
!36 = !DILocation(line: 8, column: 21, scope: !29)
!37 = !DILocation(line: 8, column: 23, scope: !29)
!38 = !DILocation(line: 8, column: 5, scope: !29)
!39 = !DILocation(line: 9, column: 21, scope: !29)
!40 = !DILocation(line: 9, column: 23, scope: !29)
!41 = !DILocation(line: 9, column: 5, scope: !29)
!42 = !DILocation(line: 13, column: 5, scope: !29)
!43 = !DILocation(line: 13, column: 11, scope: !29)
!44 = !DILocation(line: 13, column: 13, scope: !29)
!45 = !DILocation(line: 14, column: 21, scope: !46)
!46 = distinct !DILexicalBlock(scope: !29, file: !3, line: 13, column: 17)
!47 = !DILocation(line: 14, column: 23, scope: !46)
!48 = !DILocation(line: 14, column: 9, scope: !46)
!49 = !DILocation(line: 15, column: 21, scope: !46)
!50 = !DILocation(line: 15, column: 23, scope: !46)
!51 = !DILocation(line: 15, column: 9, scope: !46)
!52 = !DILocation(line: 16, column: 25, scope: !46)
!53 = !DILocation(line: 16, column: 27, scope: !46)
!54 = !DILocation(line: 16, column: 9, scope: !46)
!55 = !DILocation(line: 17, column: 21, scope: !46)
!56 = !DILocation(line: 17, column: 23, scope: !46)
!57 = !DILocation(line: 17, column: 9, scope: !46)
!58 = !DILocation(line: 19, column: 10, scope: !46)
!59 = !DILocation(line: 19, column: 12, scope: !46)
!60 = !DILocation(line: 20, column: 21, scope: !46)
!61 = !DILocation(line: 20, column: 23, scope: !46)
!62 = !DILocation(line: 20, column: 9, scope: !46)
!63 = !DILocation(line: 21, column: 21, scope: !46)
!64 = !DILocation(line: 21, column: 23, scope: !46)
!65 = !DILocation(line: 21, column: 9, scope: !46)
!66 = !DILocation(line: 23, column: 9, scope: !46)
!67 = !DILocation(line: 23, column: 15, scope: !46)
!68 = !DILocation(line: 23, column: 17, scope: !46)
!69 = !DILocation(line: 24, column: 25, scope: !70)
!70 = distinct !DILexicalBlock(scope: !46, file: !3, line: 23, column: 21)
!71 = !DILocation(line: 24, column: 27, scope: !70)
!72 = !DILocation(line: 24, column: 13, scope: !70)
!73 = !DILocation(line: 25, column: 25, scope: !70)
!74 = !DILocation(line: 25, column: 27, scope: !70)
!75 = !DILocation(line: 25, column: 13, scope: !70)
!76 = !DILocation(line: 26, column: 26, scope: !70)
!77 = !DILocation(line: 26, column: 28, scope: !70)
!78 = !DILocation(line: 26, column: 13, scope: !70)
!79 = !DILocation(line: 27, column: 25, scope: !70)
!80 = !DILocation(line: 27, column: 27, scope: !70)
!81 = !DILocation(line: 27, column: 13, scope: !70)
!82 = !DILocation(line: 28, column: 25, scope: !70)
!83 = !DILocation(line: 28, column: 27, scope: !70)
!84 = !DILocation(line: 28, column: 13, scope: !70)
!85 = !DILocation(line: 30, column: 15, scope: !70)
!86 = !DILocation(line: 31, column: 15, scope: !70)
!87 = !DILocation(line: 32, column: 15, scope: !70)
!88 = !DILocation(line: 34, column: 26, scope: !70)
!89 = !DILocation(line: 34, column: 28, scope: !70)
!90 = !DILocation(line: 34, column: 13, scope: !70)
!91 = !DILocation(line: 35, column: 26, scope: !70)
!92 = !DILocation(line: 35, column: 28, scope: !70)
!93 = !DILocation(line: 35, column: 13, scope: !70)
!94 = !DILocation(line: 36, column: 26, scope: !70)
!95 = !DILocation(line: 36, column: 28, scope: !70)
!96 = !DILocation(line: 36, column: 13, scope: !70)
!97 = !DILocation(line: 38, column: 14, scope: !70)
!98 = distinct !{!98, !66, !99}
!99 = !DILocation(line: 39, column: 9, scope: !46)
!100 = !DILocation(line: 40, column: 21, scope: !46)
!101 = !DILocation(line: 40, column: 23, scope: !46)
!102 = !DILocation(line: 40, column: 9, scope: !46)
!103 = !DILocation(line: 41, column: 21, scope: !46)
!104 = !DILocation(line: 41, column: 23, scope: !46)
!105 = !DILocation(line: 41, column: 9, scope: !46)
!106 = !DILocation(line: 42, column: 21, scope: !46)
!107 = !DILocation(line: 42, column: 23, scope: !46)
!108 = !DILocation(line: 42, column: 9, scope: !46)
!109 = !DILocation(line: 43, column: 21, scope: !46)
!110 = !DILocation(line: 43, column: 23, scope: !46)
!111 = !DILocation(line: 43, column: 9, scope: !46)
!112 = !DILocation(line: 44, column: 21, scope: !46)
!113 = !DILocation(line: 44, column: 23, scope: !46)
!114 = !DILocation(line: 44, column: 9, scope: !46)
!115 = !DILocation(line: 46, column: 11, scope: !46)
!116 = !DILocation(line: 47, column: 11, scope: !46)
!117 = !DILocation(line: 48, column: 13, scope: !46)
!118 = !DILocation(line: 48, column: 11, scope: !46)
!119 = !DILocation(line: 50, column: 22, scope: !46)
!120 = !DILocation(line: 50, column: 24, scope: !46)
!121 = !DILocation(line: 50, column: 9, scope: !46)
!122 = !DILocation(line: 51, column: 10, scope: !46)
!123 = distinct !{!123, !42, !124}
!124 = !DILocation(line: 52, column: 5, scope: !29)
!125 = !DILocation(line: 54, column: 8, scope: !126)
!126 = distinct !DILexicalBlock(scope: !29, file: !3, line: 54, column: 8)
!127 = !DILocation(line: 54, column: 10, scope: !126)
!128 = !DILocation(line: 54, column: 8, scope: !29)
!129 = !DILocation(line: 55, column: 21, scope: !130)
!130 = distinct !DILexicalBlock(scope: !126, file: !3, line: 54, column: 15)
!131 = !DILocation(line: 55, column: 23, scope: !130)
!132 = !DILocation(line: 55, column: 9, scope: !130)
!133 = !DILocation(line: 56, column: 21, scope: !130)
!134 = !DILocation(line: 56, column: 23, scope: !130)
!135 = !DILocation(line: 56, column: 9, scope: !130)
!136 = !DILocation(line: 57, column: 15, scope: !130)
!137 = !DILocation(line: 57, column: 14, scope: !130)
!138 = !DILocation(line: 57, column: 10, scope: !130)
!139 = !DILocation(line: 57, column: 12, scope: !130)
!140 = !DILocation(line: 59, column: 5, scope: !130)
!141 = !DILocation(line: 61, column: 21, scope: !142)
!142 = distinct !DILexicalBlock(scope: !126, file: !3, line: 60, column: 9)
!143 = !DILocation(line: 61, column: 23, scope: !142)
!144 = !DILocation(line: 61, column: 9, scope: !142)
!145 = !DILocation(line: 62, column: 21, scope: !142)
!146 = !DILocation(line: 62, column: 23, scope: !142)
!147 = !DILocation(line: 62, column: 9, scope: !142)
!148 = !DILocation(line: 63, column: 10, scope: !142)
!149 = !DILocation(line: 63, column: 12, scope: !142)
!150 = !DILocation(line: 64, column: 21, scope: !142)
!151 = !DILocation(line: 64, column: 23, scope: !142)
!152 = !DILocation(line: 64, column: 9, scope: !142)
!153 = !DILocation(line: 67, column: 17, scope: !29)
!154 = !DILocation(line: 67, column: 19, scope: !29)
!155 = !DILocation(line: 67, column: 5, scope: !29)
!156 = !DILocation(line: 68, column: 17, scope: !29)
!157 = !DILocation(line: 68, column: 19, scope: !29)
!158 = !DILocation(line: 68, column: 5, scope: !29)
!159 = !DILocation(line: 69, column: 17, scope: !29)
!160 = !DILocation(line: 69, column: 19, scope: !29)
!161 = !DILocation(line: 69, column: 5, scope: !29)
!162 = !DILocation(line: 71, column: 7, scope: !29)
!163 = !DILocation(line: 72, column: 7, scope: !29)
!164 = !DILocation(line: 73, column: 18, scope: !29)
!165 = !DILocation(line: 73, column: 20, scope: !29)
!166 = !DILocation(line: 73, column: 5, scope: !29)
!167 = !DILocation(line: 74, column: 18, scope: !29)
!168 = !DILocation(line: 74, column: 20, scope: !29)
!169 = !DILocation(line: 74, column: 5, scope: !29)
!170 = !DILocation(line: 76, column: 5, scope: !29)
